Certificate Request:
    Data:
        Version: 0 (0x0)
        Subject: C=US, ST=CA, L=Palo Alto, O=Open vSwitch, OU=Open vSwitch certifier, CN=ctl id:c5ed2023-c84a-4705-903f-2ed975a40344
        Subject Public Key Info:
            Public Key Algorithm: rsaEncryption
                Public-Key: (2048 bit)
                Modulus:
                    00:cd:e6:89:04:67:86:85:54:17:91:6a:20:8f:9c:
                    14:28:d6:74:c3:62:f3:19:eb:1a:25:01:e6:50:97:
                    e8:92:d7:a6:d3:e9:52:9f:31:b7:3e:15:8e:d3:15:
                    57:7f:06:71:a7:e8:7d:cf:60:4d:b7:19:ce:94:e9:
                    74:2a:6b:ae:aa:59:36:16:a8:7c:b8:21:8e:24:7e:
                    62:41:97:db:e5:66:59:bb:29:8b:5d:01:26:2d:b5:
                    79:df:e3:c5:a8:c7:24:a5:6f:e9:de:d1:ab:fa:41:
                    a8:35:86:58:7a:60:e3:d8:07:41:ea:15:6a:ec:bb:
                    28:5b:8a:86:34:7f:b7:e7:a9:69:b9:24:0b:fb:86:
                    ae:ff:8c:70:0d:b1:f5:f0:a7:44:ae:44:d6:d4:5f:
                    7d:11:e8:07:b8:0e:11:5b:6f:65:f4:94:15:a9:64:
                    c9:46:52:bb:fa:84:1a:3b:9f:0b:d0:c7:0a:22:01:
                    c3:dd:7a:d9:ca:1d:81:b2:ab:5f:71:8c:ae:7c:50:
                    98:6a:fd:ba:45:6e:bf:e5:c4:6a:42:cf:01:08:5e:
                    4b:47:c4:64:82:30:0b:54:1f:50:e4:12:72:9c:b4:
                    bc:4e:c6:6a:d8:0e:fe:cf:9a:bf:78:ab:af:bc:2c:
                    a1:09:16:61:d0:74:38:c6:ff:61:ca:eb:b3:08:dc:
                    74:c9
                Exponent: 65537 (0x10001)
        Attributes:
            a0:00
    Signature Algorithm: sha1WithRSAEncryption
         4f:c4:a6:28:1b:88:6e:71:08:ac:18:f5:cb:27:a6:50:ee:f2:
         71:dd:71:12:de:e5:a7:65:32:7f:f1:f6:4e:57:de:f3:33:18:
         b3:d9:f5:b7:4e:8c:2b:b8:23:f9:ec:16:a5:90:ea:4d:66:52:
         32:8d:cc:1c:ad:b0:fd:56:ec:72:24:5c:d8:d7:5a:a9:3d:3c:
         11:65:97:ea:53:93:66:88:5f:26:8a:bf:90:29:4f:b8:d2:04:
         21:a8:c4:b7:34:23:0d:1f:8b:94:ce:09:80:45:64:31:df:fe:
         12:53:5c:13:16:2a:fa:8e:8d:f2:13:5a:7c:ad:83:f1:da:41:
         d0:b3:42:f5:11:30:ee:e0:6f:3d:b0:f6:2a:e5:f4:ed:21:2b:
         bd:b7:2d:5b:94:a3:64:83:27:32:6e:f3:a6:15:f5:03:0e:d6:
         54:22:fa:e8:d4:ac:13:f1:f2:d5:2f:db:40:22:27:b9:bb:8e:
         f4:dc:f1:30:c4:89:e8:90:0e:95:f4:83:af:bb:16:64:58:61:
         11:33:e1:c6:f6:cb:82:90:d5:62:62:38:31:f4:74:18:19:e0:
         66:62:7f:de:2e:e7:d2:97:8e:a8:36:1f:e8:dd:e1:14:de:86:
         54:8e:ed:42:3e:19:b6:fd:81:fe:43:37:b5:41:72:0b:0d:f4:
         69:62:89:48
-----BEGIN CERTIFICATE REQUEST-----
MIIC4jCCAcoCAQAwgZwxCzAJBgNVBAYTAlVTMQswCQYDVQQIEwJDQTESMBAGA1UE
BxMJUGFsbyBBbHRvMRUwEwYDVQQKEwxPcGVuIHZTd2l0Y2gxHzAdBgNVBAsTFk9w
ZW4gdlN3aXRjaCBjZXJ0aWZpZXIxNDAyBgNVBAMTK2N0bCBpZDpjNWVkMjAyMy1j
ODRhLTQ3MDUtOTAzZi0yZWQ5NzVhNDAzNDQwggEiMA0GCSqGSIb3DQEBAQUAA4IB
DwAwggEKAoIBAQDN5okEZ4aFVBeRaiCPnBQo1nTDYvMZ6xolAeZQl+iS16bT6VKf
Mbc+FY7TFVd/BnGn6H3PYE23Gc6U6XQqa66qWTYWqHy4IY4kfmJBl9vlZlm7KYtd
ASYttXnf48WoxySlb+ne0av6Qag1hlh6YOPYB0HqFWrsuyhbioY0f7fnqWm5JAv7
hq7/jHANsfXwp0SuRNbUX30R6Ae4DhFbb2X0lBWpZMlGUrv6hBo7nwvQxwoiAcPd
etnKHYGyq19xjK58UJhq/bpFbr/lxGpCzwEIXktHxGSCMAtUH1DkEnKctLxOxmrY
Dv7Pmr94q6+8LKEJFmHQdDjG/2HK67MI3HTJAgMBAAGgADANBgkqhkiG9w0BAQUF
AAOCAQEAT8SmKBuIbnEIrBj1yyemUO7ycd1xEt7lp2Uyf/H2Tlfe8zMYs9n1t06M
K7gj+ewWpZDqTWZSMo3MHK2w/VbsciRc2NdaqT08EWWX6lOTZohfJoq/kClPuNIE
IajEtzQjDR+LlM4JgEVkMd/+ElNcExYq+o6N8hNafK2D8dpB0LNC9REw7uBvPbD2
KuX07SErvbctW5SjZIMnMm7zphX1Aw7WVCL66NSsE/Hy1S/bQCInubuO9NzxMMSJ
6JAOlfSDr7sWZFhhETPhxvbLgpDVYmI4MfR0GBngZmJ/3i7n0peOqDYf6N3hFN6G
VI7tQj4Ztv2B/kM3tUFyCw30aWKJSA==
-----END CERTIFICATE REQUEST-----
