Certificate:
    Data:
        Version: 1 (0x0)
        Serial Number: 9 (0x9)
    Signature Algorithm: md5WithRSAEncryption
        Issuer: C=US, ST=CA, O=Open vSwitch, OU=controllerca, CN=OVS controllerca CA Certificate (2013 Mar 15 15:29:26)
        Validity
            Not Before: Oct 14 16:10:03 2019 GMT
            Not After : Oct 13 16:10:03 2020 GMT
        Subject: C=US, ST=CA, O=Open vSwitch, OU=Open vSwitch certifier, CN=ctl id:c5ed2023-c84a-4705-903f-2ed975a40344
        Subject Public Key Info:
            Public Key Algorithm: rsaEncryption
                Public-Key: (2048 bit)
                Modulus:
                    00:cd:e6:89:04:67:86:85:54:17:91:6a:20:8f:9c:
                    14:28:d6:74:c3:62:f3:19:eb:1a:25:01:e6:50:97:
                    e8:92:d7:a6:d3:e9:52:9f:31:b7:3e:15:8e:d3:15:
                    57:7f:06:71:a7:e8:7d:cf:60:4d:b7:19:ce:94:e9:
                    74:2a:6b:ae:aa:59:36:16:a8:7c:b8:21:8e:24:7e:
                    62:41:97:db:e5:66:59:bb:29:8b:5d:01:26:2d:b5:
                    79:df:e3:c5:a8:c7:24:a5:6f:e9:de:d1:ab:fa:41:
                    a8:35:86:58:7a:60:e3:d8:07:41:ea:15:6a:ec:bb:
                    28:5b:8a:86:34:7f:b7:e7:a9:69:b9:24:0b:fb:86:
                    ae:ff:8c:70:0d:b1:f5:f0:a7:44:ae:44:d6:d4:5f:
                    7d:11:e8:07:b8:0e:11:5b:6f:65:f4:94:15:a9:64:
                    c9:46:52:bb:fa:84:1a:3b:9f:0b:d0:c7:0a:22:01:
                    c3:dd:7a:d9:ca:1d:81:b2:ab:5f:71:8c:ae:7c:50:
                    98:6a:fd:ba:45:6e:bf:e5:c4:6a:42:cf:01:08:5e:
                    4b:47:c4:64:82:30:0b:54:1f:50:e4:12:72:9c:b4:
                    bc:4e:c6:6a:d8:0e:fe:cf:9a:bf:78:ab:af:bc:2c:
                    a1:09:16:61:d0:74:38:c6:ff:61:ca:eb:b3:08:dc:
                    74:c9
                Exponent: 65537 (0x10001)
    Signature Algorithm: md5WithRSAEncryption
         79:5d:83:98:89:33:a9:af:52:b2:0f:30:68:f4:f6:48:fe:e2:
         0d:68:52:98:d4:96:c6:19:a2:82:a6:45:f2:44:fd:12:80:60:
         f3:53:29:49:e3:dc:a6:28:71:23:ea:84:32:48:3f:6b:3c:7b:
         e6:7c:30:80:09:bd:e7:0f:dd:52:81:c5:b6:56:d4:66:82:39:
         ab:a7:b3:91:6c:bf:3e:90:7e:a7:b8:38:0d:24:39:64:13:7a:
         e3:78:86:14:5a:0e:4d:c5:48:9f:12:11:0d:c7:51:19:f5:aa:
         bf:59:f3:71:94:3b:a7:40:84:81:81:3e:08:da:73:d3:b3:74:
         66:ab:15:a9:62:ff:06:c4:48:bf:9d:da:3a:4f:09:8d:68:34:
         1d:c8:a9:fc:b2:42:6f:b1:b6:35:4e:92:c1:08:49:4d:8c:b6:
         f4:ad:db:be:ef:c2:82:fe:c6:a5:1a:18:1b:44:21:d4:2d:ee:
         da:ba:33:14:5c:cc:c3:ed:a3:e1:ab:d9:d7:c1:f8:3d:97:6a:
         c5:ad:e5:ee:9c:05:90:09:61:8a:15:73:f6:46:b6:a1:fa:57:
         1d:53:f5:fc:17:d4:1c:0b:54:58:cd:c6:fc:4a:13:a3:f8:e7:
         8b:ce:26:7c:b8:e4:6f:7d:a8:1e:13:1b:57:05:05:ae:4c:21:
         1b:16:9c:66
-----BEGIN CERTIFICATE-----
MIIDhzCCAm8CAQkwDQYJKoZIhvcNAQEEBQAwgYkxCzAJBgNVBAYTAlVTMQswCQYD
VQQIEwJDQTEVMBMGA1UEChMMT3BlbiB2U3dpdGNoMRUwEwYDVQQLEwxjb250cm9s
bGVyY2ExPzA9BgNVBAMTNk9WUyBjb250cm9sbGVyY2EgQ0EgQ2VydGlmaWNhdGUg
KDIwMTMgTWFyIDE1IDE1OjI5OjI2KTAeFw0xOTEwMTQxNjEwMDNaFw0yMDEwMTMx
NjEwMDNaMIGIMQswCQYDVQQGEwJVUzELMAkGA1UECBMCQ0ExFTATBgNVBAoTDE9w
ZW4gdlN3aXRjaDEfMB0GA1UECxMWT3BlbiB2U3dpdGNoIGNlcnRpZmllcjE0MDIG
A1UEAxMrY3RsIGlkOmM1ZWQyMDIzLWM4NGEtNDcwNS05MDNmLTJlZDk3NWE0MDM0
NDCCASIwDQYJKoZIhvcNAQEBBQADggEPADCCAQoCggEBAM3miQRnhoVUF5FqII+c
FCjWdMNi8xnrGiUB5lCX6JLXptPpUp8xtz4VjtMVV38Gcafofc9gTbcZzpTpdCpr
rqpZNhaofLghjiR+YkGX2+VmWbspi10BJi21ed/jxajHJKVv6d7Rq/pBqDWGWHpg
49gHQeoVauy7KFuKhjR/t+epabkkC/uGrv+McA2x9fCnRK5E1tRffRHoB7gOEVtv
ZfSUFalkyUZSu/qEGjufC9DHCiIBw9162codgbKrX3GMrnxQmGr9ukVuv+XEakLP
AQheS0fEZIIwC1QfUOQScpy0vE7GatgO/s+av3irr7wsoQkWYdB0OMb/Ycrrswjc
dMkCAwEAATANBgkqhkiG9w0BAQQFAAOCAQEAeV2DmIkzqa9Ssg8waPT2SP7iDWhS
mNSWxhmigqZF8kT9EoBg81MpSePcpihxI+qEMkg/azx75nwwgAm95w/dUoHFtlbU
ZoI5q6ezkWy/PpB+p7g4DSQ5ZBN643iGFFoOTcVInxIRDcdRGfWqv1nzcZQ7p0CE
gYE+CNpz07N0ZqsVqWL/BsRIv53aOk8JjWg0Hcip/LJCb7G2NU6SwQhJTYy29K3b
vu/Cgv7GpRoYG0Qh1C3u2rozFFzMw+2j4avZ18H4PZdqxa3l7pwFkAlhihVz9ka2
ofpXHVP1/BfUHAtUWM3G/EoTo/jni84mfLjkb32oHhMbVwUFrkwhGxacZg==
-----END CERTIFICATE-----
