Certificate:
    Data:
        Version: 1 (0x0)
        Serial Number: 8 (0x8)
    Signature Algorithm: md5WithRSAEncryption
        Issuer: C=US, ST=CA, O=Open vSwitch, OU=switchca, CN=OVS switchca CA Certificate (2013 Mar 15 15:29:26)
        Validity
            Not Before: Oct 14 16:10:06 2019 GMT
            Not After : Oct 13 16:10:06 2020 GMT
        Subject: C=US, ST=CA, O=Open vSwitch, OU=Open vSwitch certifier, CN=sc id:676ff35f-27e5-49d1-8d2b-d97e5f05d7f3
        Subject Public Key Info:
            Public Key Algorithm: rsaEncryption
                Public-Key: (2048 bit)
                Modulus:
                    00:cd:3b:68:79:ea:93:1f:05:f2:5d:3c:60:f5:73:
                    7f:4d:76:96:97:8d:bc:3f:f8:49:06:aa:07:3f:37:
                    be:4b:8d:18:e6:96:ff:e7:33:b2:fd:d1:db:5b:dc:
                    6b:83:05:39:6d:bb:cd:30:f9:8e:4e:70:3e:b5:0e:
                    67:79:0e:4d:5b:f5:6e:3f:38:24:a5:66:eb:b0:90:
                    3e:7d:0d:99:59:63:7b:45:b5:16:6f:7f:82:a9:79:
                    49:0e:e8:f4:fd:85:44:91:48:8b:37:5d:a4:04:ce:
                    db:01:ee:41:de:eb:fb:c7:7a:de:f5:b0:0c:b3:2b:
                    fb:58:68:49:7e:23:d4:ca:cf:4e:39:e4:81:3a:22:
                    21:91:fd:8f:92:55:42:85:79:0a:f5:29:c0:1f:39:
                    b9:d9:70:bf:1c:e9:b2:12:ab:d5:df:a1:7b:ec:48:
                    fc:e8:e8:c3:01:c1:9b:e7:8c:47:26:71:17:82:a9:
                    09:fa:bf:a3:8f:58:97:1e:f2:73:38:53:30:b9:fb:
                    53:01:8a:af:02:88:00:9d:c2:a0:8a:bb:f3:8a:fe:
                    bf:99:3c:46:d4:fb:42:57:e8:2d:73:ab:58:ed:0b:
                    25:f6:31:3f:f7:57:ff:29:ca:81:b4:7e:72:96:03:
                    b8:4c:39:ac:90:0b:72:d9:87:f1:21:b0:dd:6f:47:
                    e6:5b
                Exponent: 65537 (0x10001)
    Signature Algorithm: md5WithRSAEncryption
         89:54:76:1b:90:16:5e:83:30:1f:c5:4e:8b:1d:9a:b3:1f:8b:
         08:fc:54:14:07:29:0d:e1:8f:d4:6a:3c:4e:b5:b8:4f:71:fe:
         7e:ce:5a:3c:23:09:73:1f:d0:5c:95:fc:fd:26:73:71:6e:45:
         01:70:83:eb:20:17:74:54:ec:97:36:28:9b:c7:db:86:df:72:
         c2:58:54:82:4e:1f:a4:cd:e0:4d:09:05:30:81:cb:08:64:f4:
         f4:69:d0:e6:7e:ae:28:73:3e:92:10:73:b4:a4:0b:88:93:89:
         ad:15:bf:3b:ba:02:c3:38:c7:96:60:2d:da:8c:13:20:e4:5d:
         78:8f:52:b9:3c:0a:55:f7:44:11:05:c4:61:cb:f1:f1:f7:22:
         51:67:a7:62:6a:67:37:59:83:fe:ba:4e:74:e9:a3:7c:da:45:
         67:2f:94:c4:a1:86:bf:0a:97:8f:52:96:ef:10:aa:c3:35:90:
         26:2a:7d:62:46:45:d7:be:11:ea:07:84:ab:3d:ac:61:41:03:
         c9:5e:b8:d5:77:41:a6:af:ef:a6:1c:52:bf:4a:c1:83:1c:3d:
         bf:dc:0e:86:a2:8d:4a:2a:da:1c:26:d2:4e:fc:61:ad:42:f9:
         36:c4:30:8d:c9:80:87:91:20:3c:0e:f6:56:58:eb:6d:2d:9f:
         1f:a1:e6:62
-----BEGIN CERTIFICATE-----
MIIDfjCCAmYCAQgwDQYJKoZIhvcNAQEEBQAwgYExCzAJBgNVBAYTAlVTMQswCQYD
VQQIEwJDQTEVMBMGA1UEChMMT3BlbiB2U3dpdGNoMREwDwYDVQQLEwhzd2l0Y2hj
YTE7MDkGA1UEAxMyT1ZTIHN3aXRjaGNhIENBIENlcnRpZmljYXRlICgyMDEzIE1h
ciAxNSAxNToyOToyNikwHhcNMTkxMDE0MTYxMDA2WhcNMjAxMDEzMTYxMDA2WjCB
hzELMAkGA1UEBhMCVVMxCzAJBgNVBAgTAkNBMRUwEwYDVQQKEwxPcGVuIHZTd2l0
Y2gxHzAdBgNVBAsTFk9wZW4gdlN3aXRjaCBjZXJ0aWZpZXIxMzAxBgNVBAMTKnNj
IGlkOjY3NmZmMzVmLTI3ZTUtNDlkMS04ZDJiLWQ5N2U1ZjA1ZDdmMzCCASIwDQYJ
KoZIhvcNAQEBBQADggEPADCCAQoCggEBAM07aHnqkx8F8l08YPVzf012lpeNvD/4
SQaqBz83vkuNGOaW/+czsv3R21vca4MFOW27zTD5jk5wPrUOZ3kOTVv1bj84JKVm
67CQPn0NmVlje0W1Fm9/gql5SQ7o9P2FRJFIizddpATO2wHuQd7r+8d63vWwDLMr
+1hoSX4j1MrPTjnkgToiIZH9j5JVQoV5CvUpwB85udlwvxzpshKr1d+he+xI/Ojo
wwHBm+eMRyZxF4KpCfq/o49Ylx7yczhTMLn7UwGKrwKIAJ3CoIq784r+v5k8RtT7
QlfoLXOrWO0LJfYxP/dX/ynKgbR+cpYDuEw5rJALctmH8SGw3W9H5lsCAwEAATAN
BgkqhkiG9w0BAQQFAAOCAQEAiVR2G5AWXoMwH8VOix2asx+LCPxUFAcpDeGP1Go8
TrW4T3H+fs5aPCMJcx/QXJX8/SZzcW5FAXCD6yAXdFTslzYom8fbht9ywlhUgk4f
pM3gTQkFMIHLCGT09GnQ5n6uKHM+khBztKQLiJOJrRW/O7oCwzjHlmAt2owTIORd
eI9SuTwKVfdEEQXEYcvx8fciUWenYmpnN1mD/rpOdOmjfNpFZy+UxKGGvwqXj1KW
7xCqwzWQJip9YkZF174R6geEqz2sYUEDyV641XdBpq/vphxSv0rBgxw9v9wOhqKN
SiraHCbSTvxhrUL5NsQwjcmAh5EgPA72VljrbS2fH6HmYg==
-----END CERTIFICATE-----
