Certificate Request:
    Data:
        Version: 0 (0x0)
        Subject: C=US, ST=CA, L=Palo Alto, O=Open vSwitch, OU=Open vSwitch certifier, CN=sc id:676ff35f-27e5-49d1-8d2b-d97e5f05d7f3
        Subject Public Key Info:
            Public Key Algorithm: rsaEncryption
                Public-Key: (2048 bit)
                Modulus:
                    00:cd:3b:68:79:ea:93:1f:05:f2:5d:3c:60:f5:73:
                    7f:4d:76:96:97:8d:bc:3f:f8:49:06:aa:07:3f:37:
                    be:4b:8d:18:e6:96:ff:e7:33:b2:fd:d1:db:5b:dc:
                    6b:83:05:39:6d:bb:cd:30:f9:8e:4e:70:3e:b5:0e:
                    67:79:0e:4d:5b:f5:6e:3f:38:24:a5:66:eb:b0:90:
                    3e:7d:0d:99:59:63:7b:45:b5:16:6f:7f:82:a9:79:
                    49:0e:e8:f4:fd:85:44:91:48:8b:37:5d:a4:04:ce:
                    db:01:ee:41:de:eb:fb:c7:7a:de:f5:b0:0c:b3:2b:
                    fb:58:68:49:7e:23:d4:ca:cf:4e:39:e4:81:3a:22:
                    21:91:fd:8f:92:55:42:85:79:0a:f5:29:c0:1f:39:
                    b9:d9:70:bf:1c:e9:b2:12:ab:d5:df:a1:7b:ec:48:
                    fc:e8:e8:c3:01:c1:9b:e7:8c:47:26:71:17:82:a9:
                    09:fa:bf:a3:8f:58:97:1e:f2:73:38:53:30:b9:fb:
                    53:01:8a:af:02:88:00:9d:c2:a0:8a:bb:f3:8a:fe:
                    bf:99:3c:46:d4:fb:42:57:e8:2d:73:ab:58:ed:0b:
                    25:f6:31:3f:f7:57:ff:29:ca:81:b4:7e:72:96:03:
                    b8:4c:39:ac:90:0b:72:d9:87:f1:21:b0:dd:6f:47:
                    e6:5b
                Exponent: 65537 (0x10001)
        Attributes:
            a0:00
    Signature Algorithm: sha1WithRSAEncryption
         44:4d:cb:ec:c2:89:98:d4:7a:01:b2:bb:1d:aa:bc:0c:34:3f:
         b4:d0:e2:ad:b1:56:f1:5e:ae:f6:21:ba:c3:bd:7b:9e:d6:32:
         11:f7:72:e3:b0:f2:50:17:47:14:e8:59:eb:f2:59:e0:ac:3b:
         ee:a9:cc:ca:6f:6a:1d:74:88:32:67:8a:62:8b:fb:c6:9a:7d:
         0b:94:86:bc:12:68:8a:83:ca:43:c6:b0:c4:81:25:70:55:2b:
         a7:c7:96:69:a8:68:31:cf:cd:84:ed:0d:b8:cf:de:01:f4:f7:
         47:00:1a:46:74:6e:dd:7e:08:43:2e:1e:1a:21:e3:c9:0a:1b:
         95:fc:aa:92:d6:72:ef:3b:e5:7c:0b:85:0b:da:1c:9d:de:bc:
         a5:ca:91:8e:19:e3:04:e5:69:f8:75:2b:0a:74:3a:9e:44:05:
         a1:61:71:5c:1f:00:19:0e:8f:b6:29:7c:f3:c8:8a:90:a1:5e:
         10:ba:0c:3f:28:65:09:7f:79:ac:a6:07:83:94:d1:6d:41:f8:
         8b:c2:fc:2d:6b:c9:76:5f:a1:53:15:14:63:4f:d5:d4:33:14:
         6a:72:df:ad:d0:cc:7f:e5:68:e0:37:7f:7a:14:43:a3:72:ae:
         c8:44:f1:e9:29:1e:64:45:e2:87:6d:d9:42:db:45:c2:8f:1a:
         46:7e:fe:73
-----BEGIN CERTIFICATE REQUEST-----
MIIC4TCCAckCAQAwgZsxCzAJBgNVBAYTAlVTMQswCQYDVQQIEwJDQTESMBAGA1UE
BxMJUGFsbyBBbHRvMRUwEwYDVQQKEwxPcGVuIHZTd2l0Y2gxHzAdBgNVBAsTFk9w
ZW4gdlN3aXRjaCBjZXJ0aWZpZXIxMzAxBgNVBAMTKnNjIGlkOjY3NmZmMzVmLTI3
ZTUtNDlkMS04ZDJiLWQ5N2U1ZjA1ZDdmMzCCASIwDQYJKoZIhvcNAQEBBQADggEP
ADCCAQoCggEBAM07aHnqkx8F8l08YPVzf012lpeNvD/4SQaqBz83vkuNGOaW/+cz
sv3R21vca4MFOW27zTD5jk5wPrUOZ3kOTVv1bj84JKVm67CQPn0NmVlje0W1Fm9/
gql5SQ7o9P2FRJFIizddpATO2wHuQd7r+8d63vWwDLMr+1hoSX4j1MrPTjnkgToi
IZH9j5JVQoV5CvUpwB85udlwvxzpshKr1d+he+xI/OjowwHBm+eMRyZxF4KpCfq/
o49Ylx7yczhTMLn7UwGKrwKIAJ3CoIq784r+v5k8RtT7QlfoLXOrWO0LJfYxP/dX
/ynKgbR+cpYDuEw5rJALctmH8SGw3W9H5lsCAwEAAaAAMA0GCSqGSIb3DQEBBQUA
A4IBAQBETcvswomY1HoBsrsdqrwMND+00OKtsVbxXq72IbrDvXue1jIR93LjsPJQ
F0cU6Fnr8lngrDvuqczKb2oddIgyZ4pii/vGmn0LlIa8EmiKg8pDxrDEgSVwVSun
x5ZpqGgxz82E7Q24z94B9PdHABpGdG7dfghDLh4aIePJChuV/KqS1nLvO+V8C4UL
2hyd3rylypGOGeME5Wn4dSsKdDqeRAWhYXFcHwAZDo+2KXzzyIqQoV4Qugw/KGUJ
f3mspgeDlNFtQfiLwvwta8l2X6FTFRRjT9XUMxRqct+t0Mx/5WjgN396FEOjcq7I
RPHpKR5kReKHbdlC20XCjxpGfv5z
-----END CERTIFICATE REQUEST-----
